target datalayout = "e-m:e-p270:32:32-p271:32:32-p272:64:64-i64:64-i128:128-f80:128-n8:16:32:64-S128"
target triple = "x86_64-pc-linux-gnu"

%struct._stat_cmd_arg = type { ptr, ptr, ptr, ptr }
%struct.stat_requested = type { ptr, ptr }
%struct._GSList = type { ptr, ptr }

@stats_requested = internal global ptr null, align 8

; Function Attrs: null_pointer_is_valid sspstrong uwtable
define void @start_requested_stats() #0 {
  %1 = alloca ptr, align 8
  call void @llvm.lifetime.start.p0(i64 8, ptr %1) #13
  br label %2

2:                                                ; preds = %5, %0
  %3 = load ptr, ptr @stats_requested, align 8
  %4 = icmp ne ptr %3, null
  br i1 %4, label %5, label %29

5:                                                ; preds = %2
  %6 = load ptr, ptr @stats_requested, align 8
  %7 = getelementptr inbounds nuw %struct._GSList, ptr %6, i32 0, i32 0
  %8 = load ptr, ptr %7, align 8
  store ptr %8, ptr %1, align 8
  %9 = load ptr, ptr %1, align 8
  %10 = getelementptr inbounds nuw %struct.stat_requested, ptr %9, i32 0, i32 0
  %11 = load ptr, ptr %10, align 8
  %12 = getelementptr inbounds nuw %struct._stat_cmd_arg, ptr %11, i32 0, i32 2
  %13 = load ptr, ptr %12, align 8
  %14 = load ptr, ptr %1, align 8
  %15 = getelementptr inbounds nuw %struct.stat_requested, ptr %14, i32 0, i32 1
  %16 = load ptr, ptr %15, align 8
  %17 = load ptr, ptr %1, align 8
  %18 = getelementptr inbounds nuw %struct.stat_requested, ptr %17, i32 0, i32 0
  %19 = load ptr, ptr %18, align 8
  %20 = getelementptr inbounds nuw %struct._stat_cmd_arg, ptr %19, i32 0, i32 3
  %21 = load ptr, ptr %20, align 8
  call void %13(ptr noundef %16, ptr noundef %21)
  %22 = load ptr, ptr @stats_requested, align 8
  %23 = load ptr, ptr %1, align 8
  %24 = call ptr @g_slist_remove(ptr noundef %22, ptr noundef %23)
  store ptr %24, ptr @stats_requested, align 8
  %25 = load ptr, ptr %1, align 8
  %26 = getelementptr inbounds nuw %struct.stat_requested, ptr %25, i32 0, i32 1
  %27 = load ptr, ptr %26, align 8
  call void @g_free(ptr noundef %27)
  %28 = load ptr, ptr %1, align 8
  call void @g_free(ptr noundef %28)
  br label %2, !llvm.loop !8

29:                                               ; preds = %2
  call void @llvm.lifetime.end.p0(i64 8, ptr %1) #13
  ret void
}