; Function Attrs: null_pointer_is_valid sspstrong uwtable
define void @start_requested_stats() local_unnamed_addr #0 {
  %1 = load ptr, ptr @stats_requested, align 8
  %.not6 = icmp eq ptr %1, null
  br i1 %.not6, label %._crit_edge, label %.lr.ph

.lr.ph:                                           ; preds = %0, %.lr.ph
  %2 = phi ptr [ %14, %.lr.ph ], [ %1, %0 ]
  %3 = load ptr, ptr %2, align 8
  %4 = load ptr, ptr %3, align 8
  %5 = getelementptr inbounds nuw i8, ptr %4, i64 16
  %6 = load ptr, ptr %5, align 8
  %7 = getelementptr inbounds nuw i8, ptr %3, i64 8
  %8 = load ptr, ptr %7, align 8
  %9 = getelementptr inbounds nuw i8, ptr %4, i64 24
  %10 = load ptr, ptr %9, align 8
  tail call void %6(ptr noundef %8, ptr noundef %10)
  %11 = load ptr, ptr @stats_requested, align 8
  %12 = tail call ptr @g_slist_remove(ptr noundef %11, ptr noundef %3)
  store ptr %12, ptr @stats_requested, align 8
  %13 = load ptr, ptr %7, align 8
  tail call void @g_free(ptr noundef %13)
  tail call void @g_free(ptr noundef %3)
  %14 = load ptr, ptr @stats_requested, align 8
  %.not = icmp eq ptr %14, null
  br i1 %.not, label %._crit_edge, label %.lr.ph, !llvm.loop !8

._crit_edge:                                      ; preds = %.lr.ph, %0
  ret void
}